target datalayout = "e-m:e-p270:32:32-p271:32:32-p272:64:64-i64:64-i128:128-f80:128-n8:16:32:64-S128"
target triple = "x86_64-pc-linux-gnu"

%"class.std::unique_ptr.24" = type { %"struct.std::__uniq_ptr_data.25" }
%"struct.std::__uniq_ptr_data.25" = type { %"class.std::__uniq_ptr_impl.26" }
%"class.std::__uniq_ptr_impl.26" = type { %"class.std::tuple.27" }
%"class.std::tuple.27" = type { %"struct.std::_Tuple_impl.28" }
%"struct.std::_Tuple_impl.28" = type { %"struct.std::_Head_base.31" }
%"struct.std::_Head_base.31" = type { ptr }
%"class.gmx::TextInputFile" = type { %"class.gmx::TextInputStream", %"class.std::unique_ptr.24" }
%"class.gmx::TextInputStream" = type { ptr }
%"class.gmx::internal::FileStreamImpl" = type <{ ptr, i8, [7 x i8] }>

@_ZTVN3gmx15TextInputStreamE = linkonce_odr unnamed_addr constant { [6 x ptr] } { [6 x ptr] [ptr null, ptr @_ZTIN3gmx15TextInputStreamE, ptr @_ZN3gmx15TextInputStreamD2Ev, ptr @_ZN3gmx15TextInputStreamD0Ev, ptr @__cxa_pure_virtual, ptr @__cxa_pure_virtual] }, comdat, align 8

; Function Attrs: mustprogress nounwind uwtable
define linkonce_odr noundef nonnull align 8 dereferenceable(8) ptr @_ZNSt10_Head_baseILm0EPN3gmx8internal14FileStreamImplELb0EE7_M_headERS4_(ptr noundef nonnull align 8 dereferenceable(8) %0) #0 comdat align 2 {
  %2 = alloca ptr, align 8
  store ptr %0, ptr %2, align 8, !tbaa !196
  %3 = load ptr, ptr %2, align 8, !tbaa !196
  %4 = getelementptr inbounds nuw %"struct.std::_Head_base.31", ptr %3, i32 0, i32 0
  ret ptr %4
}

; Function Attrs: mustprogress nounwind uwtable
define linkonce_odr noundef nonnull align 8 dereferenceable(8) ptr @_ZNSt11_Tuple_implILm0EJPN3gmx8internal14FileStreamImplESt14default_deleteIS2_EEE7_M_headERS6_(ptr noundef nonnull align 8 dereferenceable(8) %0) #0 comdat align 2 {
  %2 = alloca ptr, align 8
  store ptr %0, ptr %2, align 8, !tbaa !192
  %3 = load ptr, ptr %2, align 8, !tbaa !192
  %4 = call noundef nonnull align 8 dereferenceable(8) ptr @_ZNSt10_Head_baseILm0EPN3gmx8internal14FileStreamImplELb0EE7_M_headERS4_(ptr noundef nonnull align 8 dereferenceable(8) %3) #19
  ret ptr %4
}

; Function Attrs: mustprogress nounwind uwtable
define linkonce_odr void @_ZNSt10_Head_baseILm1ESt14default_deleteIN3gmx8internal14FileStreamImplEELb1EEC2Ev(ptr noundef nonnull align 1 dereferenceable(1) %0) unnamed_addr #0 comdat align 2 {
  %2 = alloca ptr, align 8
  store ptr %0, ptr %2, align 8, !tbaa !200
  ret void
}

; Function Attrs: mustprogress nounwind uwtable
define linkonce_odr noundef nonnull align 8 dereferenceable(8) ptr @_ZSt12__get_helperILm0EPN3gmx8internal14FileStreamImplEJSt14default_deleteIS2_EEERT0_RSt11_Tuple_implIXT_EJS6_DpT1_EE(ptr noundef nonnull align 8 dereferenceable(8) %0) #0 comdat {
  %2 = alloca ptr, align 8
  store ptr %0, ptr %2, align 8, !tbaa !192
  %3 = load ptr, ptr %2, align 8, !tbaa !192
  %4 = call noundef nonnull align 8 dereferenceable(8) ptr @_ZNSt11_Tuple_implILm0EJPN3gmx8internal14FileStreamImplESt14default_deleteIS2_EEE7_M_headERS6_(ptr noundef nonnull align 8 dereferenceable(8) %3) #19
  ret ptr %4
}

; Function Attrs: mustprogress nounwind uwtable
define linkonce_odr void @_ZNSt10_Head_baseILm0EPN3gmx8internal14FileStreamImplELb0EEC2Ev(ptr noundef nonnull align 8 dereferenceable(8) %0) unnamed_addr #0 comdat align 2 {
  %2 = alloca ptr, align 8
  store ptr %0, ptr %2, align 8, !tbaa !196
  %3 = load ptr, ptr %2, align 8
  %4 = getelementptr inbounds nuw %"struct.std::_Head_base.31", ptr %3, i32 0, i32 0
  store ptr null, ptr %4, align 8, !tbaa !198
  ret void
}

; Function Attrs: mustprogress uwtable
define linkonce_odr void @_ZNSt11_Tuple_implILm1EJSt14default_deleteIN3gmx8internal14FileStreamImplEEEEC2Ev(ptr noundef nonnull align 1 dereferenceable(1) %0) unnamed_addr #2 comdat align 2 {
  %2 = alloca ptr, align 8
  store ptr %0, ptr %2, align 8, !tbaa !194
  %3 = load ptr, ptr %2, align 8
  call void @_ZNSt10_Head_baseILm1ESt14default_deleteIN3gmx8internal14FileStreamImplEELb1EEC2Ev(ptr noundef nonnull align 1 dereferenceable(1) %3)
  ret void
}

; Function Attrs: mustprogress nounwind uwtable
define linkonce_odr noundef nonnull align 8 dereferenceable(8) ptr @_ZSt3getILm0EJPN3gmx8internal14FileStreamImplESt14default_deleteIS2_EEERNSt13tuple_elementIXT_ESt5tupleIJDpT0_EEE4typeERSA_(ptr noundef nonnull align 8 dereferenceable(8) %0) #0 comdat {
  %2 = alloca ptr, align 8
  store ptr %0, ptr %2, align 8, !tbaa !190
  %3 = load ptr, ptr %2, align 8, !tbaa !190
  %4 = call noundef nonnull align 8 dereferenceable(8) ptr @_ZSt12__get_helperILm0EPN3gmx8internal14FileStreamImplEJSt14default_deleteIS2_EEERT0_RSt11_Tuple_implIXT_EJS6_DpT1_EE(ptr noundef nonnull align 8 dereferenceable(8) %3) #19
  ret ptr %4
}

; Function Attrs: mustprogress uwtable
define linkonce_odr void @_ZNSt11_Tuple_implILm0EJPN3gmx8internal14FileStreamImplESt14default_deleteIS2_EEEC2Ev(ptr noundef nonnull align 8 dereferenceable(8) %0) unnamed_addr #2 comdat align 2 {
  %2 = alloca ptr, align 8
  store ptr %0, ptr %2, align 8, !tbaa !192
  %3 = load ptr, ptr %2, align 8
  call void @_ZNSt11_Tuple_implILm1EJSt14default_deleteIN3gmx8internal14FileStreamImplEEEEC2Ev(ptr noundef nonnull align 1 dereferenceable(1) %3)
  call void @_ZNSt10_Head_baseILm0EPN3gmx8internal14FileStreamImplELb0EEC2Ev(ptr noundef nonnull align 8 dereferenceable(8) %3)
  ret void
}

; Function Attrs: mustprogress nounwind uwtable
define linkonce_odr noundef nonnull align 8 dereferenceable(8) ptr @_ZNSt15__uniq_ptr_implIN3gmx8internal14FileStreamImplESt14default_deleteIS2_EE6_M_ptrEv(ptr noundef nonnull align 8 dereferenceable(8) %0) #0 comdat align 2 {
  %2 = alloca ptr, align 8
  store ptr %0, ptr %2, align 8, !tbaa !188
  %3 = load ptr, ptr %2, align 8
  %4 = getelementptr inbounds nuw %"class.std::__uniq_ptr_impl.26", ptr %3, i32 0, i32 0
  %5 = call noundef nonnull align 8 dereferenceable(8) ptr @_ZSt3getILm0EJPN3gmx8internal14FileStreamImplESt14default_deleteIS2_EEERNSt13tuple_elementIXT_ESt5tupleIJDpT0_EEE4typeERSA_(ptr noundef nonnull align 8 dereferenceable(8) %4) #19
  ret ptr %5
}

; Function Attrs: mustprogress nounwind uwtable
define linkonce_odr void @_ZNSt5tupleIJPN3gmx8internal14FileStreamImplESt14default_deleteIS2_EEEC2ILb1ETnNSt9enable_ifIXclsr17_TupleConstraintsIXT_ES3_S5_EE37__is_implicitly_default_constructibleEEbE4typeELb1EEEv(ptr noundef nonnull align 8 dereferenceable(8) %0) unnamed_addr #0 comdat align 2 personality ptr @__gxx_personality_v0 {
  %2 = alloca ptr, align 8
  store ptr %0, ptr %2, align 8, !tbaa !190
  %3 = load ptr, ptr %2, align 8
  invoke void @_ZNSt11_Tuple_implILm0EJPN3gmx8internal14FileStreamImplESt14default_deleteIS2_EEEC2Ev(ptr noundef nonnull align 8 dereferenceable(8) %3)
          to label %4 unwind label %5

4:                                                ; preds = %1
  ret void

5:                                                ; preds = %1
  %6 = landingpad { ptr, i32 }
          catch ptr null
  %7 = extractvalue { ptr, i32 } %6, 0
  call void @__clang_call_terminate(ptr %7) #24
  unreachable
}

; Function Attrs: mustprogress nounwind uwtable
define linkonce_odr void @_ZNSt15__uniq_ptr_implIN3gmx8internal14FileStreamImplESt14default_deleteIS2_EEC2EPS2_(ptr noundef nonnull align 8 dereferenceable(8) %0, ptr noundef %1) unnamed_addr #0 comdat align 2 {
  %3 = alloca ptr, align 8
  %4 = alloca ptr, align 8
  store ptr %0, ptr %3, align 8, !tbaa !188
  store ptr %1, ptr %4, align 8, !tbaa !179
  %5 = load ptr, ptr %3, align 8
  %6 = getelementptr inbounds nuw %"class.std::__uniq_ptr_impl.26", ptr %5, i32 0, i32 0
  call void @_ZNSt5tupleIJPN3gmx8internal14FileStreamImplESt14default_deleteIS2_EEEC2ILb1ETnNSt9enable_ifIXclsr17_TupleConstraintsIXT_ES3_S5_EE37__is_implicitly_default_constructibleEEbE4typeELb1EEEv(ptr noundef nonnull align 8 dereferenceable(8) %6) #19
  %7 = load ptr, ptr %4, align 8, !tbaa !179
  %8 = call noundef nonnull align 8 dereferenceable(8) ptr @_ZNSt15__uniq_ptr_implIN3gmx8internal14FileStreamImplESt14default_deleteIS2_EE6_M_ptrEv(ptr noundef nonnull align 8 dereferenceable(8) %5) #19
  store ptr %7, ptr %8, align 8, !tbaa !179
  ret void
}

; Function Attrs: noinline noreturn nounwind uwtable
define linkonce_odr hidden void @__clang_call_terminate(ptr noundef %0) #9 comdat {
  %2 = call ptr @__cxa_begin_catch(ptr %0) #19
  call void @_ZSt9terminatev() #24
  unreachable
}

; Function Attrs: inlinehint mustprogress uwtable
define linkonce_odr void @_ZNSt15__uniq_ptr_dataIN3gmx8internal14FileStreamImplESt14default_deleteIS2_ELb1ELb1EECI2St15__uniq_ptr_implIS2_S4_EEPS2_(ptr noundef nonnull align 8 dereferenceable(8) %0, ptr noundef %1) unnamed_addr #8 comdat align 2 {
  %3 = alloca ptr, align 8
  %4 = alloca ptr, align 8
  store ptr %0, ptr %3, align 8, !tbaa !186
  store ptr %1, ptr %4, align 8, !tbaa !179
  %5 = load ptr, ptr %3, align 8
  %6 = load ptr, ptr %4, align 8, !tbaa !179
  call void @_ZNSt15__uniq_ptr_implIN3gmx8internal14FileStreamImplESt14default_deleteIS2_EEC2EPS2_(ptr noundef nonnull align 8 dereferenceable(8) %5, ptr noundef %6)
  ret void
}

; Function Attrs: mustprogress nounwind uwtable
define linkonce_odr void @_ZN3gmx15TextInputStreamD2Ev(ptr noundef nonnull align 8 dereferenceable(8) %0) unnamed_addr #0 comdat align 2 {
  %2 = alloca ptr, align 8
  store ptr %0, ptr %2, align 8, !tbaa !4
  ret void
}

; Function Attrs: mustprogress nounwind uwtable
define linkonce_odr void @_ZNSt10unique_ptrIN3gmx8internal14FileStreamImplESt14default_deleteIS2_EEC2IS4_vEEPS2_(ptr noundef nonnull align 8 dereferenceable(8) %0, ptr noundef %1) unnamed_addr #0 comdat align 2 personality ptr @__gxx_personality_v0 {
  %3 = alloca ptr, align 8
  %4 = alloca ptr, align 8
  store ptr %0, ptr %3, align 8, !tbaa !184
  store ptr %1, ptr %4, align 8, !tbaa !179
  %5 = load ptr, ptr %3, align 8
  %6 = getelementptr inbounds nuw %"class.std::unique_ptr.24", ptr %5, i32 0, i32 0
  %7 = load ptr, ptr %4, align 8, !tbaa !179
  invoke void @_ZNSt15__uniq_ptr_dataIN3gmx8internal14FileStreamImplESt14default_deleteIS2_ELb1ELb1EECI2St15__uniq_ptr_implIS2_S4_EEPS2_(ptr noundef nonnull align 8 dereferenceable(8) %6, ptr noundef %7)
          to label %8 unwind label %9

8:                                                ; preds = %2
  ret void

9:                                                ; preds = %2
  %10 = landingpad { ptr, i32 }
          catch ptr null
  %11 = extractvalue { ptr, i32 } %10, 0
  call void @__clang_call_terminate(ptr %11) #24
  unreachable
}

; Function Attrs: mustprogress nounwind uwtable
define linkonce_odr void @_ZN3gmx8internal14FileStreamImplC2EP8_IO_FILE(ptr noundef nonnull align 8 dereferenceable(9) %0, ptr noundef %1) unnamed_addr #0 comdat align 2 {
  %3 = alloca ptr, align 8
  %4 = alloca ptr, align 8
  store ptr %0, ptr %3, align 8, !tbaa !179
  store ptr %1, ptr %4, align 8, !tbaa !13
  %5 = load ptr, ptr %3, align 8
  %6 = getelementptr inbounds nuw %"class.gmx::internal::FileStreamImpl", ptr %5, i32 0, i32 0
  %7 = load ptr, ptr %4, align 8, !tbaa !13
  store ptr %7, ptr %6, align 8, !tbaa !181
  %8 = getelementptr inbounds nuw %"class.gmx::internal::FileStreamImpl", ptr %5, i32 0, i32 1
  store i8 0, ptr %8, align 8, !tbaa !183
  ret void
}

; Function Attrs: inlinehint mustprogress nounwind uwtable
define linkonce_odr void @_ZN3gmx15TextInputStreamC2Ev(ptr noundef nonnull align 8 dereferenceable(8) %0) unnamed_addr #1 comdat align 2 {
  %2 = alloca ptr, align 8
  store ptr %0, ptr %2, align 8, !tbaa !4
  %3 = load ptr, ptr %2, align 8
  store ptr getelementptr inbounds inrange(-16, 32) ({ [6 x ptr] }, ptr @_ZTVN3gmx15TextInputStreamE, i32 0, i32 0, i32 2), ptr %3, align 8, !tbaa !38
  ret void
}

; Function Attrs: mustprogress uwtable
define void @_ZN3gmx13TextInputFileC2EP8_IO_FILE(ptr noundef nonnull align 8 dereferenceable(16) %0, ptr noundef %1) unnamed_addr #2 align 2 personality ptr @__gxx_personality_v0 {
  %3 = alloca ptr, align 8
  %4 = alloca ptr, align 8
  %5 = alloca ptr, align 8
  %6 = alloca i32, align 4
  store ptr %0, ptr %3, align 8, !tbaa !15
  store ptr %1, ptr %4, align 8, !tbaa !13
  %7 = load ptr, ptr %3, align 8
  call void @_ZN3gmx15TextInputStreamC2Ev(ptr noundef nonnull align 8 dereferenceable(8) %7) #19
  store ptr getelementptr inbounds inrange(-16, 32) ({ [6 x ptr] }, ptr @_ZTVN3gmx13TextInputFileE, i32 0, i32 0, i32 2), ptr %7, align 8, !tbaa !38
  %8 = getelementptr inbounds nuw %"class.gmx::TextInputFile", ptr %7, i32 0, i32 1
  %9 = invoke noalias noundef nonnull ptr @_Znwm(i64 noundef 16) #25
          to label %10 unwind label %13

10:                                               ; preds = %2
  %11 = load ptr, ptr %4, align 8, !tbaa !13
  invoke void @_ZN3gmx8internal14FileStreamImplC2EP8_IO_FILE(ptr noundef nonnull align 8 dereferenceable(9) %9, ptr noundef %11)
          to label %12 unwind label %17

12:                                               ; preds = %10
  call void @_ZNSt10unique_ptrIN3gmx8internal14FileStreamImplESt14default_deleteIS2_EEC2IS4_vEEPS2_(ptr noundef nonnull align 8 dereferenceable(8) %8, ptr noundef %9) #19
  ret void

13:                                               ; preds = %2
  %14 = landingpad { ptr, i32 }
          cleanup
  %15 = extractvalue { ptr, i32 } %14, 0
  store ptr %15, ptr %5, align 8
  %16 = extractvalue { ptr, i32 } %14, 1
  store i32 %16, ptr %6, align 4
  br label %21

17:                                               ; preds = %10
  %18 = landingpad { ptr, i32 }
          cleanup
  %19 = extractvalue { ptr, i32 } %18, 0
  store ptr %19, ptr %5, align 8
  %20 = extractvalue { ptr, i32 } %18, 1
  store i32 %20, ptr %6, align 4
  call void @_ZdlPvm(ptr noundef %9, i64 noundef 16) #20
  br label %21

21:                                               ; preds = %17, %13
  call void @_ZN3gmx15TextInputStreamD2Ev(ptr noundef nonnull align 8 dereferenceable(8) %7) #19
  br label %22

22:                                               ; preds = %21
  %23 = load ptr, ptr %5, align 8
  %24 = load i32, ptr %6, align 4
  %25 = insertvalue { ptr, i32 } poison, ptr %23, 0
  %26 = insertvalue { ptr, i32 } %25, i32 %24, 1
  resume { ptr, i32 } %26
}