; Function Attrs: mustprogress uwtable
define void @_ZN3gmx13TextInputFileC2EP8_IO_FILE(ptr noundef nonnull writeonly align 8 captures(none) dereferenceable(16) initializes((0, 16)) %0, ptr noundef %1) unnamed_addr #2 align 2 personality ptr @__gxx_personality_v0 {
  store ptr getelementptr inbounds nuw inrange(-16, 32) (i8, ptr @_ZTVN3gmx13TextInputFileE, i64 16), ptr %0, align 8, !tbaa !16
  %3 = tail call noalias noundef nonnull dereferenceable(16) ptr @_Znwm(i64 noundef 16) #26
  %4 = getelementptr inbounds nuw i8, ptr %0, i64 8
  store ptr %1, ptr %3, align 8, !tbaa !11
  %5 = getelementptr inbounds nuw i8, ptr %3, i64 8
  store i8 0, ptr %5, align 8, !tbaa !68
  store ptr %3, ptr %4, align 8, !tbaa !9
  ret void
}